; Function Attrs: nounwind uwtable
define hidden void @zif_xmlwriter_end_dtd(ptr noundef %0, ptr nocapture noundef writeonly %1) #0 {
  %3 = alloca ptr, align 8
  call void @llvm.lifetime.start.p0(i64 8, ptr nonnull %3)
  %4 = getelementptr inbounds i8, ptr %0, i64 32
  %5 = getelementptr inbounds i8, ptr %0, i64 44
  %6 = load i32, ptr %5, align 4
  %7 = getelementptr inbounds i8, ptr %0, i64 40
  %8 = load i8, ptr %7, align 8
  %9 = icmp eq i8 %8, 8
  %10 = select i1 %9, ptr %4, ptr null
  %11 = load ptr, ptr @xmlwriter_class_entry_ce, align 8
  %12 = call i32 (i32, ptr, ptr, ...) @zend_parse_method_parameters(i32 noundef %6, ptr noundef %10, ptr noundef nonnull @.str.14, ptr noundef nonnull %3, ptr noundef %11) #11
  %13 = icmp eq i32 %12, -1
  br i1 %13, label %14, label %17

14:                                               ; preds = %2
  %15 = load ptr, ptr getelementptr inbounds (%struct._zend_executor_globals, ptr @executor_globals, i64 0, i32 50), align 8
  %16 = icmp ne ptr %15, null
  call void @llvm.assume(i1 %16)
  br label %php_xmlwriter_end.exit

17:                                               ; preds = %2
  %18 = load ptr, ptr %3, align 8
  %19 = load ptr, ptr %18, align 8
  %20 = getelementptr inbounds i8, ptr %19, i64 -16
  %21 = load ptr, ptr %20, align 8
  %.not.i = icmp eq ptr %21, null
  br i1 %.not.i, label %22, label %25

22:                                               ; preds = %17
  call void (ptr, ptr, ...) @zend_throw_error(ptr noundef null, ptr noundef nonnull @.str.4) #11
  %23 = load ptr, ptr getelementptr inbounds (%struct._zend_executor_globals, ptr @executor_globals, i64 0, i32 50), align 8
  %24 = icmp ne ptr %23, null
  call void @llvm.assume(i1 %24)
  br label %php_xmlwriter_end.exit

25:                                               ; preds = %17
  %26 = call i32 @xmlTextWriterEndDTD(ptr noundef nonnull %21) #11
  %.not9.i = icmp eq i32 %26, -1
  %27 = select i1 %.not9.i, i32 2, i32 3
  %28 = getelementptr inbounds i8, ptr %1, i64 8
  store i32 %27, ptr %28, align 8
  br label %php_xmlwriter_end.exit

php_xmlwriter_end.exit:                           ; preds = %14, %22, %25
  call void @llvm.lifetime.end.p0(i64 8, ptr nonnull %3)
  ret void
}